; Function Attrs: nounwind uwtable
define noalias nonnull ptr @l___private_Lean_Meta_DiscrTree_0__Lean_Meta_DiscrTree_getKeyArgs___lambda__1(ptr noundef %0, ptr noundef %1, ptr readnone captures(none) %2, ptr readnone captures(none) %3, ptr readnone captures(none) %4, ptr readnone captures(none) %5, ptr readnone captures(none) %6, ptr noundef %7) local_unnamed_addr #2 {
  %9 = tail call ptr @l___private_Lean_Expr_0__Lean_Expr_getAppNumArgsAux(ptr noundef %0, ptr noundef nonnull inttoptr (i64 1 to ptr)) #7
  %10 = ptrtoint ptr %9 to i64
  %11 = and i64 %10, 1
  %.not = icmp eq i64 %11, 0
  br i1 %.not, label %12, label %lean_inc.exit

12:                                               ; preds = %8
  %.val.i = load i32, ptr %9, align 4, !tbaa !4
  %13 = icmp sgt i32 %.val.i, 0
  br i1 %13, label %14, label %16, !prof !11

14:                                               ; preds = %12
  %15 = add nuw i32 %.val.i, 1
  store i32 %15, ptr %9, align 4, !tbaa !4
  br label %lean_inc.exit

16:                                               ; preds = %12
  %.not.i20 = icmp eq i32 %.val.i, 0
  br i1 %.not.i20, label %lean_inc.exit, label %17

17:                                               ; preds = %16
  tail call void @lean_inc_ref_cold(ptr noundef nonnull %9) #7
  br label %lean_inc.exit

lean_inc.exit:                                    ; preds = %17, %16, %14, %8
  tail call void @lean_inc_heartbeat() #7
  %18 = tail call noalias ptr @mi_malloc_small(i64 noundef 24) #7
  %19 = icmp eq ptr %18, null
  br i1 %19, label %20, label %lean_alloc_ctor.exit

20:                                               ; preds = %lean_inc.exit
  tail call void @lean_internal_panic_out_of_memory() #8
  unreachable

lean_alloc_ctor.exit:                             ; preds = %lean_inc.exit
  %21 = getelementptr inbounds nuw i8, ptr %18, i64 4
  store i32 1, ptr %18, align 4, !tbaa !4
  store i32 131096, ptr %21, align 4
  %22 = getelementptr inbounds nuw i8, ptr %18, i64 8
  store ptr %1, ptr %22, align 8, !tbaa !9
  %23 = getelementptr inbounds nuw i8, ptr %18, i64 16
  store ptr %9, ptr %23, align 8, !tbaa !9
  br i1 %.not, label %24, label %lean_dec.exit

24:                                               ; preds = %lean_alloc_ctor.exit
  tail call void @lean_internal_panic_out_of_memory() #8
  unreachable

lean_dec.exit:                                    ; preds = %lean_alloc_ctor.exit
  %25 = lshr i64 %10, 1
  %26 = shl i64 %25, 3
  %27 = add i64 %26, 24
  %28 = tail call ptr @lean_alloc_object(i64 noundef %27) #7
  store i32 1, ptr %28, align 4, !tbaa !4
  %29 = getelementptr inbounds nuw i8, ptr %28, i64 4
  %30 = load i32, ptr %29, align 4
  %31 = and i32 %30, 65535
  %32 = or disjoint i32 %31, -167772160
  store i32 %32, ptr %29, align 4
  %33 = getelementptr inbounds nuw i8, ptr %28, i64 8
  store i64 0, ptr %33, align 8, !tbaa !14
  %34 = getelementptr inbounds nuw i8, ptr %28, i64 16
  store i64 %25, ptr %34, align 8, !tbaa !14
  %35 = tail call ptr @l___private_Lean_Expr_0__Lean_Expr_getAppRevArgsAux(ptr noundef %0, ptr noundef nonnull %28) #7
  tail call void @lean_inc_heartbeat() #7
  %36 = tail call noalias ptr @mi_malloc_small(i64 noundef 24) #7
  %37 = icmp eq ptr %36, null
  br i1 %37, label %38, label %lean_alloc_ctor.exit22

38:                                               ; preds = %lean_dec.exit
  tail call void @lean_internal_panic_out_of_memory() #8
  unreachable

lean_alloc_ctor.exit22:                           ; preds = %lean_dec.exit
  %39 = getelementptr inbounds nuw i8, ptr %36, i64 4
  store i32 1, ptr %36, align 4, !tbaa !4
  store i32 131096, ptr %39, align 4
  %40 = getelementptr inbounds nuw i8, ptr %36, i64 8
  store ptr %18, ptr %40, align 8, !tbaa !9
  %41 = getelementptr inbounds nuw i8, ptr %36, i64 16
  store ptr %35, ptr %41, align 8, !tbaa !9
  tail call void @lean_inc_heartbeat() #7
  %42 = tail call noalias ptr @mi_malloc_small(i64 noundef 24) #7
  %43 = icmp eq ptr %42, null
  br i1 %43, label %44, label %lean_alloc_ctor.exit23

44:                                               ; preds = %lean_alloc_ctor.exit22
  tail call void @lean_internal_panic_out_of_memory() #8
  unreachable

lean_alloc_ctor.exit23:                           ; preds = %lean_alloc_ctor.exit22
  %45 = getelementptr inbounds nuw i8, ptr %42, i64 4
  store i32 1, ptr %42, align 4, !tbaa !4
  store i32 131096, ptr %45, align 4
  %46 = getelementptr inbounds nuw i8, ptr %42, i64 8
  store ptr %36, ptr %46, align 8, !tbaa !9
  %47 = getelementptr inbounds nuw i8, ptr %42, i64 16
  store ptr %7, ptr %47, align 8, !tbaa !9
  ret ptr %42
}